; ModuleID = '43/99.c'
source_filename = "43/99.c"
target datalayout = "e-m:e-p270:32:32-p271:32:32-p272:64:64-i64:64-f80:128-n8:16:32:64-S128"
target triple = "x86_64-pc-linux-gnu"

@.str = private unnamed_addr constant [3 x i8] c"%d\00", align 1
@.str.1 = private unnamed_addr constant [4 x i8] c"3 3\00", align 1
@.str.2 = private unnamed_addr constant [7 x i8] c"%d %d\0A\00", align 1

; Function Attrs: noinline nounwind uwtable
define dso_local i32 @main() #0 {
  %1 = alloca i32, align 4
  %2 = alloca i32, align 4
  %3 = alloca i32, align 4
  %4 = alloca i32, align 4
  %5 = alloca i32, align 4
  %6 = alloca i32, align 4
  %7 = alloca i32, align 4
  %8 = alloca i32, align 4
  store i32 0, i32* %1, align 4
  store i32 0, i32* %3, align 4
  %9 = call i32 (i8*, ...) @__isoc99_scanf(i8* getelementptr inbounds ([3 x i8], [3 x i8]* @.str, i64 0, i64 0), i32* %2)
  %10 = load i32, i32* %2, align 4
  %11 = icmp eq i32 %10, 6
  br i1 %11, label %12, label %14

12:                                               ; preds = %0
  %13 = call i32 (i8*, ...) @printf(i8* getelementptr inbounds ([4 x i8], [4 x i8]* @.str.1, i64 0, i64 0))
  br label %72

14:                                               ; preds = %0
  %15 = load i32, i32* %2, align 4
  %16 = sdiv i32 %15, 2
  store i32 %16, i32* %7, align 4
  store i32 3, i32* %5, align 4
  br label %17

17:                                               ; preds = %68, %14
  %18 = load i32, i32* %5, align 4
  %19 = load i32, i32* %7, align 4
  %20 = icmp sle i32 %18, %19
  br i1 %20, label %21, label %71

21:                                               ; preds = %17
  store i32 0, i32* %3, align 4
  store i32 2, i32* %6, align 4
  br label %22

22:                                               ; preds = %33, %21
  %23 = load i32, i32* %6, align 4
  %24 = load i32, i32* %5, align 4
  %25 = icmp slt i32 %23, %24
  br i1 %25, label %26, label %36

26:                                               ; preds = %22
  %27 = load i32, i32* %5, align 4
  %28 = load i32, i32* %6, align 4
  %29 = srem i32 %27, %28
  %30 = icmp eq i32 %29, 0
  br i1 %30, label %31, label %32

31:                                               ; preds = %26
  store i32 1, i32* %3, align 4
  br label %32

32:                                               ; preds = %31, %26
  br label %33

33:                                               ; preds = %32
  %34 = load i32, i32* %6, align 4
  %35 = add nsw i32 %34, 1
  store i32 %35, i32* %6, align 4
  br label %22

36:                                               ; preds = %22
  %37 = load i32, i32* %3, align 4
  %38 = icmp eq i32 %37, 0
  br i1 %38, label %39, label %67

39:                                               ; preds = %36
  %40 = load i32, i32* %2, align 4
  %41 = load i32, i32* %5, align 4
  %42 = sub nsw i32 %40, %41
  store i32 %42, i32* %4, align 4
  store i32 2, i32* %8, align 4
  br label %43

43:                                               ; preds = %54, %39
  %44 = load i32, i32* %8, align 4
  %45 = load i32, i32* %4, align 4
  %46 = icmp slt i32 %44, %45
  br i1 %46, label %47, label %57

47:                                               ; preds = %43
  %48 = load i32, i32* %4, align 4
  %49 = load i32, i32* %8, align 4
  %50 = srem i32 %48, %49
  %51 = icmp eq i32 %50, 0
  br i1 %51, label %52, label %53

52:                                               ; preds = %47
  store i32 1, i32* %3, align 4
  br label %53

53:                                               ; preds = %52, %47
  br label %54

54:                                               ; preds = %53
  %55 = load i32, i32* %8, align 4
  %56 = add nsw i32 %55, 1
  store i32 %56, i32* %8, align 4
  br label %43

57:                                               ; preds = %43
  %58 = load i32, i32* %3, align 4
  %59 = icmp eq i32 %58, 0
  br i1 %59, label %60, label %66

60:                                               ; preds = %57
  %61 = load i32, i32* %5, align 4
  %62 = load i32, i32* %2, align 4
  %63 = load i32, i32* %5, align 4
  %64 = sub nsw i32 %62, %63
  %65 = call i32 (i8*, ...) @printf(i8* getelementptr inbounds ([7 x i8], [7 x i8]* @.str.2, i64 0, i64 0), i32 %61, i32 %64)
  br label %66

66:                                               ; preds = %60, %57
  br label %67

67:                                               ; preds = %66, %36
  br label %68

68:                                               ; preds = %67
  %69 = load i32, i32* %5, align 4
  %70 = add nsw i32 %69, 1
  store i32 %70, i32* %5, align 4
  br label %17

71:                                               ; preds = %17
  br label %72

72:                                               ; preds = %71, %12
  %73 = call i32 @getchar()
  %74 = call i32 @getchar()
  %75 = load i32, i32* %1, align 4
  ret i32 %75
}

declare dso_local i32 @__isoc99_scanf(i8*, ...) #1

declare dso_local i32 @printf(i8*, ...) #1

declare dso_local i32 @getchar() #1


!llvm.module.flags = !{!0}
!llvm.ident = !{!1}

!0 = !{i32 1, !"wchar_size", i32 4}
!1 = !{!"clang version 10.0.0-4ubuntu1 "}
